target datalayout = "e-m:e-p270:32:32-p271:32:32-p272:64:64-i64:64-i128:128-f80:128-n8:16:32:64-S128"
target triple = "x86_64-pc-linux-gnu"

%struct.TupleTableSlotOps = type { i64, ptr, ptr, ptr, ptr, ptr, ptr, ptr, ptr, ptr, ptr, ptr, ptr }
%struct.WalReceiverFunctionsType = type { ptr, ptr, ptr, ptr, ptr, ptr, ptr, ptr, ptr, ptr, ptr, ptr, ptr, ptr, ptr, ptr, ptr }
%struct.List = type { i32, i32, i32, ptr, [0 x %union.ListCell] }
%union.ListCell = type { ptr }
%struct.StringInfoData = type { ptr, i32, i32, i32 }
%struct.WalRcvExecResult = type { i32, i32, ptr, ptr, ptr }
%struct.ItemPointerData = type { %struct.BlockIdData, i16 }
%struct.BlockIdData = type { i16, i16 }
%struct.TupleTableSlot = type { i32, i16, i16, ptr, ptr, ptr, ptr, ptr, %struct.ItemPointerData, i32 }

@.str.4 = private unnamed_addr constant [19 x i8] c"subscriptioncmds.c\00", align 1
@WalReceiverFunctions = external global ptr, align 8
@__const.check_publications.tableRow = private unnamed_addr constant [1 x i32] [i32 25], align 4
@.str.82 = private unnamed_addr constant [73 x i8] c"SELECT t.pubname FROM\0A pg_catalog.pg_publication t WHERE\0A t.pubname IN (\00", align 1
@.str.83 = private unnamed_addr constant [62 x i8] c"could not receive list of publications from the publisher: %s\00", align 1
@__func__.check_publications = private unnamed_addr constant [19 x i8] c"check_publications\00", align 1
@TTSOpsMinimalTuple = external constant %struct.TupleTableSlotOps, align 8
@.str.84 = private unnamed_addr constant [47 x i8] c"publication %s does not exist on the publisher\00", align 1
@.str.85 = private unnamed_addr constant [46 x i8] c"publications %s do not exist on the publisher\00", align 1

; Function Attrs: inlinehint nounwind uwtable
define internal void @slot_getsomeattrs(ptr noundef %0, i32 noundef %1) #5 {
  %3 = alloca ptr, align 8
  %4 = alloca i32, align 4
  store ptr %0, ptr %3, align 8
  store i32 %1, ptr %4, align 4
  %5 = load ptr, ptr %3, align 8
  %6 = getelementptr inbounds nuw %struct.TupleTableSlot, ptr %5, i32 0, i32 2
  %7 = load i16, ptr %6, align 2
  %8 = sext i16 %7 to i32
  %9 = load i32, ptr %4, align 4
  %10 = icmp slt i32 %8, %9
  br i1 %10, label %11, label %14

11:                                               ; preds = %2
  %12 = load ptr, ptr %3, align 8
  %13 = load i32, ptr %4, align 4
  call void @slot_getsomeattrs_int(ptr noundef %12, i32 noundef %13)
  br label %14

14:                                               ; preds = %11, %2
  ret void
}

; Function Attrs: inlinehint nounwind uwtable
define internal i32 @list_length(ptr noundef %0) #5 {
  %2 = alloca ptr, align 8
  store ptr %0, ptr %2, align 8
  %3 = load ptr, ptr %2, align 8
  %4 = icmp ne ptr %3, null
  br i1 %4, label %5, label %9

5:                                                ; preds = %1
  %6 = load ptr, ptr %2, align 8
  %7 = getelementptr inbounds nuw %struct.List, ptr %6, i32 0, i32 1
  %8 = load i32, ptr %7, align 4
  br label %10

9:                                                ; preds = %1
  br label %10

10:                                               ; preds = %9, %5
  %11 = phi i32 [ %8, %5 ], [ 0, %9 ]
  ret i32 %11
}

; Function Attrs: inlinehint nounwind uwtable
define internal void @walrcv_clear_result(ptr noundef %0) #5 {
  %2 = alloca ptr, align 8
  store ptr %0, ptr %2, align 8
  %3 = load ptr, ptr %2, align 8
  %4 = icmp ne ptr %3, null
  br i1 %4, label %6, label %5

5:                                                ; preds = %1
  br label %35

6:                                                ; preds = %1
  %7 = load ptr, ptr %2, align 8
  %8 = getelementptr inbounds nuw %struct.WalRcvExecResult, ptr %7, i32 0, i32 2
  %9 = load ptr, ptr %8, align 8
  %10 = icmp ne ptr %9, null
  br i1 %10, label %11, label %15

11:                                               ; preds = %6
  %12 = load ptr, ptr %2, align 8
  %13 = getelementptr inbounds nuw %struct.WalRcvExecResult, ptr %12, i32 0, i32 2
  %14 = load ptr, ptr %13, align 8
  call void @pfree(ptr noundef %14)
  br label %15

15:                                               ; preds = %11, %6
  %16 = load ptr, ptr %2, align 8
  %17 = getelementptr inbounds nuw %struct.WalRcvExecResult, ptr %16, i32 0, i32 3
  %18 = load ptr, ptr %17, align 8
  %19 = icmp ne ptr %18, null
  br i1 %19, label %20, label %24

20:                                               ; preds = %15
  %21 = load ptr, ptr %2, align 8
  %22 = getelementptr inbounds nuw %struct.WalRcvExecResult, ptr %21, i32 0, i32 3
  %23 = load ptr, ptr %22, align 8
  call void @tuplestore_end(ptr noundef %23)
  br label %24

24:                                               ; preds = %20, %15
  %25 = load ptr, ptr %2, align 8
  %26 = getelementptr inbounds nuw %struct.WalRcvExecResult, ptr %25, i32 0, i32 4
  %27 = load ptr, ptr %26, align 8
  %28 = icmp ne ptr %27, null
  br i1 %28, label %29, label %33

29:                                               ; preds = %24
  %30 = load ptr, ptr %2, align 8
  %31 = getelementptr inbounds nuw %struct.WalRcvExecResult, ptr %30, i32 0, i32 4
  %32 = load ptr, ptr %31, align 8
  call void @FreeTupleDesc(ptr noundef %32)
  br label %33

33:                                               ; preds = %29, %24
  %34 = load ptr, ptr %2, align 8
  call void @pfree(ptr noundef %34)
  br label %35

35:                                               ; preds = %33, %5
  ret void
}

; Function Attrs: inlinehint nounwind uwtable
define internal ptr @ExecClearTuple(ptr noundef %0) #5 {
  %2 = alloca ptr, align 8
  store ptr %0, ptr %2, align 8
  %3 = load ptr, ptr %2, align 8
  %4 = getelementptr inbounds nuw %struct.TupleTableSlot, ptr %3, i32 0, i32 3
  %5 = load ptr, ptr %4, align 8
  %6 = getelementptr inbounds nuw %struct.TupleTableSlotOps, ptr %5, i32 0, i32 3
  %7 = load ptr, ptr %6, align 8
  %8 = load ptr, ptr %2, align 8
  call void %7(ptr noundef %8)
  %9 = load ptr, ptr %2, align 8
  ret ptr %9
}

; Function Attrs: inlinehint nounwind uwtable
define internal ptr @DatumGetPointer(i64 noundef %0) #5 {
  %2 = alloca i64, align 8
  store i64 %0, ptr %2, align 8
  %3 = load i64, ptr %2, align 8
  %4 = inttoptr i64 %3 to ptr
  ret ptr %4
}

; Function Attrs: inlinehint nounwind uwtable
define internal i64 @slot_getattr(ptr noundef %0, i32 noundef %1, ptr noundef %2) #5 {
  %4 = alloca ptr, align 8
  %5 = alloca i32, align 4
  %6 = alloca ptr, align 8
  store ptr %0, ptr %4, align 8
  store i32 %1, ptr %5, align 4
  store ptr %2, ptr %6, align 8
  %7 = load i32, ptr %5, align 4
  %8 = load ptr, ptr %4, align 8
  %9 = getelementptr inbounds nuw %struct.TupleTableSlot, ptr %8, i32 0, i32 2
  %10 = load i16, ptr %9, align 2
  %11 = sext i16 %10 to i32
  %12 = icmp sgt i32 %7, %11
  br i1 %12, label %13, label %16

13:                                               ; preds = %3
  %14 = load ptr, ptr %4, align 8
  %15 = load i32, ptr %5, align 4
  call void @slot_getsomeattrs(ptr noundef %14, i32 noundef %15)
  br label %16

16:                                               ; preds = %13, %3
  %17 = load ptr, ptr %4, align 8
  %18 = getelementptr inbounds nuw %struct.TupleTableSlot, ptr %17, i32 0, i32 6
  %19 = load ptr, ptr %18, align 8
  %20 = load i32, ptr %5, align 4
  %21 = sub i32 %20, 1
  %22 = sext i32 %21 to i64
  %23 = getelementptr inbounds i8, ptr %19, i64 %22
  %24 = load i8, ptr %23, align 1, !range !4, !noundef !5
  %25 = trunc i8 %24 to i1
  %26 = load ptr, ptr %6, align 8
  %27 = zext i1 %25 to i8
  store i8 %27, ptr %26, align 1
  %28 = load ptr, ptr %4, align 8
  %29 = getelementptr inbounds nuw %struct.TupleTableSlot, ptr %28, i32 0, i32 5
  %30 = load ptr, ptr %29, align 8
  %31 = load i32, ptr %5, align 4
  %32 = sub i32 %31, 1
  %33 = sext i32 %32 to i64
  %34 = getelementptr inbounds i64, ptr %30, i64 %33
  %35 = load i64, ptr %34, align 8
  ret i64 %35
}

; Function Attrs: nounwind uwtable
define internal void @check_publications(ptr noundef %0, ptr noundef %1) #0 {
  %3 = alloca ptr, align 8
  %4 = alloca ptr, align 8
  %5 = alloca ptr, align 8
  %6 = alloca ptr, align 8
  %7 = alloca ptr, align 8
  %8 = alloca ptr, align 8
  %9 = alloca [1 x i32], align 4
  %10 = alloca ptr, align 8
  %11 = alloca i8, align 1
  %12 = alloca ptr, align 8
  store ptr %0, ptr %3, align 8
  store ptr %1, ptr %4, align 8
  call void @llvm.lifetime.start.p0(i64 8, ptr %5) #10
  call void @llvm.lifetime.start.p0(i64 8, ptr %6) #10
  call void @llvm.lifetime.start.p0(i64 8, ptr %7) #10
  call void @llvm.lifetime.start.p0(i64 8, ptr %8) #10
  store ptr null, ptr %8, align 8
  call void @llvm.lifetime.start.p0(i64 4, ptr %9) #10
  call void @llvm.memcpy.p0.p0.i64(ptr align 4 %9, ptr align 4 @__const.check_publications.tableRow, i64 4, i1 false)
  %13 = call ptr @makeStringInfo()
  store ptr %13, ptr %6, align 8
  %14 = load ptr, ptr %6, align 8
  call void @appendStringInfoString(ptr noundef %14, ptr noundef @.str.82)
  %15 = load ptr, ptr %4, align 8
  %16 = load ptr, ptr %6, align 8
  call void @GetPublicationsStr(ptr noundef %15, ptr noundef %16, i1 noundef zeroext true)
  %17 = load ptr, ptr %6, align 8
  call void @appendStringInfoChar(ptr noundef %17, i8 noundef signext 41)
  %18 = load ptr, ptr @WalReceiverFunctions, align 8
  %19 = getelementptr inbounds nuw %struct.WalReceiverFunctionsType, ptr %18, i32 0, i32 15
  %20 = load ptr, ptr %19, align 8
  %21 = load ptr, ptr %3, align 8
  %22 = load ptr, ptr %6, align 8
  %23 = getelementptr inbounds nuw %struct.StringInfoData, ptr %22, i32 0, i32 0
  %24 = load ptr, ptr %23, align 8
  %25 = getelementptr inbounds [1 x i32], ptr %9, i64 0, i64 0
  %26 = call ptr %20(ptr noundef %21, ptr noundef %24, i32 noundef 1, ptr noundef %25)
  store ptr %26, ptr %5, align 8
  %27 = load ptr, ptr %6, align 8
  call void @destroyStringInfo(ptr noundef %27)
  %28 = load ptr, ptr %5, align 8
  %29 = getelementptr inbounds nuw %struct.WalRcvExecResult, ptr %28, i32 0, i32 0
  %30 = load i32, ptr %29, align 8
  %31 = icmp ne i32 %30, 2
  br i1 %31, label %32, label %46

32:                                               ; preds = %2
  br label %33

33:                                               ; preds = %32
  br i1 true, label %34, label %36

34:                                               ; preds = %33
  %35 = call zeroext i1 @errstart_cold(i32 noundef 21, ptr noundef null) #11
  br i1 %35, label %38, label %43

36:                                               ; preds = %33
  %37 = call zeroext i1 @errstart(i32 noundef 21, ptr noundef null)
  br i1 %37, label %38, label %43

38:                                               ; preds = %36, %34
  %39 = load ptr, ptr %5, align 8
  %40 = getelementptr inbounds nuw %struct.WalRcvExecResult, ptr %39, i32 0, i32 2
  %41 = load ptr, ptr %40, align 8
  %42 = call i32 (ptr, ...) @errmsg(ptr noundef @.str.83, ptr noundef %41)
  call void @errfinish(ptr noundef @.str.4, i32 noundef 467, ptr noundef @__func__.check_publications)
  br label %43

43:                                               ; preds = %38, %36, %34
  unreachable

44:                                               ; No predecessors!
  br label %45

45:                                               ; preds = %44
  br label %46

46:                                               ; preds = %45, %2
  %47 = load ptr, ptr %4, align 8
  %48 = call ptr @list_copy(ptr noundef %47)
  store ptr %48, ptr %8, align 8
  %49 = load ptr, ptr %5, align 8
  %50 = getelementptr inbounds nuw %struct.WalRcvExecResult, ptr %49, i32 0, i32 4
  %51 = load ptr, ptr %50, align 8
  %52 = call ptr @MakeSingleTupleTableSlot(ptr noundef %51, ptr noundef @TTSOpsMinimalTuple)
  store ptr %52, ptr %7, align 8
  br label %53

53:                                               ; preds = %59, %46
  %54 = load ptr, ptr %5, align 8
  %55 = getelementptr inbounds nuw %struct.WalRcvExecResult, ptr %54, i32 0, i32 3
  %56 = load ptr, ptr %55, align 8
  %57 = load ptr, ptr %7, align 8
  %58 = call zeroext i1 @tuplestore_gettupleslot(ptr noundef %56, i1 noundef zeroext true, i1 noundef zeroext false, ptr noundef %57)
  br i1 %58, label %59, label %70

59:                                               ; preds = %53
  call void @llvm.lifetime.start.p0(i64 8, ptr %10) #10
  call void @llvm.lifetime.start.p0(i64 1, ptr %11) #10
  %60 = load ptr, ptr %7, align 8
  %61 = call i64 @slot_getattr(ptr noundef %60, i32 noundef 1, ptr noundef %11)
  %62 = call ptr @DatumGetPointer(i64 noundef %61)
  %63 = call ptr @text_to_cstring(ptr noundef %62)
  store ptr %63, ptr %10, align 8
  %64 = load ptr, ptr %8, align 8
  %65 = load ptr, ptr %10, align 8
  %66 = call ptr @makeString(ptr noundef %65)
  %67 = call ptr @list_delete(ptr noundef %64, ptr noundef %66)
  store ptr %67, ptr %8, align 8
  %68 = load ptr, ptr %7, align 8
  %69 = call ptr @ExecClearTuple(ptr noundef %68)
  call void @llvm.lifetime.end.p0(i64 1, ptr %11) #10
  call void @llvm.lifetime.end.p0(i64 8, ptr %10) #10
  br label %53, !llvm.loop !9

70:                                               ; preds = %53
  %71 = load ptr, ptr %7, align 8
  call void @ExecDropSingleTupleTableSlot(ptr noundef %71)
  %72 = load ptr, ptr %5, align 8
  call void @walrcv_clear_result(ptr noundef %72)
  %73 = load ptr, ptr %8, align 8
  %74 = call i32 @list_length(ptr noundef %73)
  %75 = icmp ne i32 %74, 0
  br i1 %75, label %76, label %97

76:                                               ; preds = %70
  call void @llvm.lifetime.start.p0(i64 8, ptr %12) #10
  %77 = call ptr @makeStringInfo()
  store ptr %77, ptr %12, align 8
  %78 = load ptr, ptr %8, align 8
  %79 = load ptr, ptr %12, align 8
  call void @GetPublicationsStr(ptr noundef %78, ptr noundef %79, i1 noundef zeroext false)
  br label %80

80:                                               ; preds = %76
  br i1 false, label %81, label %83

81:                                               ; preds = %80
  %82 = call zeroext i1 @errstart_cold(i32 noundef 19, ptr noundef null) #11
  br i1 %82, label %85, label %94

83:                                               ; preds = %80
  %84 = call zeroext i1 @errstart(i32 noundef 19, ptr noundef null)
  br i1 %84, label %85, label %94

85:                                               ; preds = %83, %81
  %86 = call i32 @errcode(i32 noundef 67137668)
  %87 = load ptr, ptr %8, align 8
  %88 = call i32 @list_length(ptr noundef %87)
  %89 = sext i32 %88 to i64
  %90 = load ptr, ptr %12, align 8
  %91 = getelementptr inbounds nuw %struct.StringInfoData, ptr %90, i32 0, i32 0
  %92 = load ptr, ptr %91, align 8
  %93 = call i32 (ptr, ptr, i64, ...) @errmsg_plural(ptr noundef @.str.84, ptr noundef @.str.85, i64 noundef %89, ptr noundef %92)
  call void @errfinish(ptr noundef @.str.4, i32 noundef 501, ptr noundef @__func__.check_publications)
  br label %94

94:                                               ; preds = %85, %83, %81
  br label %95

95:                                               ; preds = %94
  br label %96

96:                                               ; preds = %95
  call void @llvm.lifetime.end.p0(i64 8, ptr %12) #10
  br label %97

97:                                               ; preds = %96, %70
  call void @llvm.lifetime.end.p0(i64 4, ptr %9) #10
  call void @llvm.lifetime.end.p0(i64 8, ptr %8) #10
  call void @llvm.lifetime.end.p0(i64 8, ptr %7) #10
  call void @llvm.lifetime.end.p0(i64 8, ptr %6) #10
  call void @llvm.lifetime.end.p0(i64 8, ptr %5) #10
  ret void
}