; Function Attrs: nounwind uwtable
define internal fastcc void @check_publications(ptr noundef nonnull %0, ptr noundef %1) unnamed_addr #0 {
  %3 = alloca [1 x i32], align 4
  call void @llvm.lifetime.start.p0(i64 4, ptr nonnull %3) #10
  store i32 25, ptr %3, align 4
  %4 = tail call ptr @makeStringInfo() #10
  tail call void @appendStringInfoString(ptr noundef %4, ptr noundef nonnull @.str.82) #10
  tail call void @GetPublicationsStr(ptr noundef %1, ptr noundef %4, i1 noundef zeroext true) #10
  tail call void @appendStringInfoChar(ptr noundef %4, i8 noundef signext 41) #10
  %5 = load ptr, ptr @WalReceiverFunctions, align 8
  %6 = getelementptr inbounds nuw i8, ptr %5, i64 120
  %7 = load ptr, ptr %6, align 8
  %8 = load ptr, ptr %4, align 8
  %9 = call ptr %7(ptr noundef nonnull %0, ptr noundef %8, i32 noundef 1, ptr noundef nonnull %3) #10
  call void @destroyStringInfo(ptr noundef nonnull %4) #10
  %10 = load i32, ptr %9, align 8
  %.not = icmp eq i32 %10, 2
  br i1 %.not, label %16, label %11

11:                                               ; preds = %2
  %12 = call zeroext i1 @errstart_cold(i32 noundef 21, ptr noundef null) #11
  call void @llvm.assume(i1 %12)
  %13 = getelementptr inbounds nuw i8, ptr %9, i64 8
  %14 = load ptr, ptr %13, align 8
  %15 = call i32 (ptr, ...) @errmsg(ptr noundef nonnull @.str.83, ptr noundef %14) #10
  call void @errfinish(ptr noundef nonnull @.str.4, i32 noundef 467, ptr noundef nonnull @__func__.check_publications) #10
  unreachable

16:                                               ; preds = %2
  %17 = call ptr @list_copy(ptr noundef %1) #10
  %18 = getelementptr inbounds nuw i8, ptr %9, i64 24
  %19 = load ptr, ptr %18, align 8
  %20 = call ptr @MakeSingleTupleTableSlot(ptr noundef %19, ptr noundef nonnull @TTSOpsMinimalTuple) #10
  %21 = getelementptr inbounds nuw i8, ptr %9, i64 16
  %22 = load ptr, ptr %21, align 8
  %23 = call zeroext i1 @tuplestore_gettupleslot(ptr noundef %22, i1 noundef zeroext true, i1 noundef zeroext false, ptr noundef %20) #10
  br i1 %23, label %.lr.ph, label %._crit_edge

.lr.ph:                                           ; preds = %16
  %24 = getelementptr inbounds nuw i8, ptr %20, i64 6
  %25 = getelementptr inbounds nuw i8, ptr %20, i64 24
  %26 = getelementptr inbounds nuw i8, ptr %20, i64 8
  br label %27

27:                                               ; preds = %.lr.ph, %slot_getattr.exit
  %.029 = phi ptr [ %17, %.lr.ph ], [ %35, %slot_getattr.exit ]
  %28 = load i16, ptr %24, align 2
  %29 = icmp slt i16 %28, 1
  br i1 %29, label %slot_getsomeattrs.exit.i, label %slot_getattr.exit

slot_getsomeattrs.exit.i:                         ; preds = %27
  call void @slot_getsomeattrs_int(ptr noundef nonnull %20, i32 noundef range(i32 1, 3) 1) #10
  br label %slot_getattr.exit

slot_getattr.exit:                                ; preds = %27, %slot_getsomeattrs.exit.i
  %30 = load ptr, ptr %25, align 8
  %31 = load i64, ptr %30, align 8
  %32 = inttoptr i64 %31 to ptr
  %33 = call ptr @text_to_cstring(ptr noundef %32) #10
  %34 = call ptr @makeString(ptr noundef %33) #10
  %35 = call ptr @list_delete(ptr noundef %.029, ptr noundef %34) #10
  %36 = load ptr, ptr %26, align 8
  %37 = getelementptr inbounds nuw i8, ptr %36, i64 24
  %38 = load ptr, ptr %37, align 8
  call void %38(ptr noundef nonnull %20) #10
  %39 = load ptr, ptr %21, align 8
  %40 = call zeroext i1 @tuplestore_gettupleslot(ptr noundef %39, i1 noundef zeroext true, i1 noundef zeroext false, ptr noundef nonnull %20) #10
  br i1 %40, label %27, label %._crit_edge, !llvm.loop !6

._crit_edge:                                      ; preds = %slot_getattr.exit, %16
  %.0.lcssa = phi ptr [ %17, %16 ], [ %35, %slot_getattr.exit ]
  call void @ExecDropSingleTupleTableSlot(ptr noundef %20) #10
  %41 = getelementptr inbounds nuw i8, ptr %9, i64 8
  %42 = load ptr, ptr %41, align 8
  %.not11.i = icmp eq ptr %42, null
  br i1 %.not11.i, label %44, label %43

43:                                               ; preds = %._crit_edge
  call void @pfree(ptr noundef nonnull %42) #10
  br label %44

44:                                               ; preds = %43, %._crit_edge
  %45 = load ptr, ptr %21, align 8
  %.not12.i = icmp eq ptr %45, null
  br i1 %.not12.i, label %47, label %46

46:                                               ; preds = %44
  call void @tuplestore_end(ptr noundef nonnull %45) #10
  br label %47

47:                                               ; preds = %46, %44
  %48 = load ptr, ptr %18, align 8
  %.not13.i = icmp eq ptr %48, null
  br i1 %.not13.i, label %walrcv_clear_result.exit, label %49

49:                                               ; preds = %47
  call void @FreeTupleDesc(ptr noundef nonnull %48) #10
  br label %walrcv_clear_result.exit

walrcv_clear_result.exit:                         ; preds = %47, %49
  call void @pfree(ptr noundef nonnull %9) #10
  %.not.i25 = icmp eq ptr %.0.lcssa, null
  br i1 %.not.i25, label %list_length.exit.thread, label %list_length.exit

list_length.exit:                                 ; preds = %walrcv_clear_result.exit
  %50 = getelementptr inbounds nuw i8, ptr %.0.lcssa, i64 4
  %51 = load i32, ptr %50, align 4
  %.not24 = icmp eq i32 %51, 0
  br i1 %.not24, label %list_length.exit.thread, label %52

52:                                               ; preds = %list_length.exit
  %53 = call ptr @makeStringInfo() #10
  call void @GetPublicationsStr(ptr noundef nonnull %.0.lcssa, ptr noundef %53, i1 noundef zeroext false) #10
  %54 = call zeroext i1 @errstart(i32 noundef 19, ptr noundef null) #10
  br i1 %54, label %list_length.exit27, label %list_length.exit.thread

list_length.exit27:                               ; preds = %52
  %55 = call i32 @errcode(i32 noundef 67137668) #10
  %56 = load i32, ptr %50, align 4
  %57 = sext i32 %56 to i64
  %58 = load ptr, ptr %53, align 8
  %59 = call i32 (ptr, ptr, i64, ...) @errmsg_plural(ptr noundef nonnull @.str.84, ptr noundef nonnull @.str.85, i64 noundef %57, ptr noundef %58) #10
  call void @errfinish(ptr noundef nonnull @.str.4, i32 noundef 501, ptr noundef nonnull @__func__.check_publications) #10
  br label %list_length.exit.thread

list_length.exit.thread:                          ; preds = %walrcv_clear_result.exit, %52, %list_length.exit27, %list_length.exit
  call void @llvm.lifetime.end.p0(i64 4, ptr nonnull %3) #10
  ret void
}